target datalayout = "e-m:e-p270:32:32-p271:32:32-p272:64:64-i64:64-i128:128-f80:128-n8:16:32:64-S128"
target triple = "x86_64-pc-linux-gnu"

%"class.cvc5::internal::Cardinality" = type { %"class.cvc5::internal::Integer" }
%"class.cvc5::internal::Integer" = type { %class.__gmp_expr }
%class.__gmp_expr = type { [1 x %struct.__mpz_struct] }
%struct.__mpz_struct = type { i32, i32, ptr }
%"class.std::__cxx11::basic_string" = type { %"struct.std::__cxx11::basic_string<char>::_Alloc_hider", i64, %union.anon }
%"struct.std::__cxx11::basic_string<char>::_Alloc_hider" = type { ptr }
%union.anon = type { i64, [8 x i8] }
%"class.cvc5::internal::DType" = type { %"class.std::__cxx11::basic_string", %"class.std::vector", i8, i8, i8, i8, %"class.std::vector.3", i8, %"class.cvc5::internal::TypeNode", i8, i8, %"class.cvc5::internal::TypeNode", %"class.cvc5::internal::NodeTemplate", i8, i8, %"class.cvc5::internal::Cardinality", %"class.std::map", %"class.std::map.11", i32, i32, %"class.std::map.16", %"class.std::map.16", %"class.std::map.21", %"class.std::map.26" }
%"class.std::vector" = type { %"struct.std::_Vector_base" }
%"struct.std::_Vector_base" = type { %"struct.std::_Vector_base<cvc5::internal::TypeNode, std::allocator<cvc5::internal::TypeNode>>::_Vector_impl" }
%"struct.std::_Vector_base<cvc5::internal::TypeNode, std::allocator<cvc5::internal::TypeNode>>::_Vector_impl" = type { %"struct.std::_Vector_base<cvc5::internal::TypeNode, std::allocator<cvc5::internal::TypeNode>>::_Vector_impl_data" }
%"struct.std::_Vector_base<cvc5::internal::TypeNode, std::allocator<cvc5::internal::TypeNode>>::_Vector_impl_data" = type { ptr, ptr, ptr }
%"class.std::vector.3" = type { %"struct.std::_Vector_base.4" }
%"struct.std::_Vector_base.4" = type { %"struct.std::_Vector_base<std::shared_ptr<cvc5::internal::DTypeConstructor>, std::allocator<std::shared_ptr<cvc5::internal::DTypeConstructor>>>::_Vector_impl" }
%"struct.std::_Vector_base<std::shared_ptr<cvc5::internal::DTypeConstructor>, std::allocator<std::shared_ptr<cvc5::internal::DTypeConstructor>>>::_Vector_impl" = type { %"struct.std::_Vector_base<std::shared_ptr<cvc5::internal::DTypeConstructor>, std::allocator<std::shared_ptr<cvc5::internal::DTypeConstructor>>>::_Vector_impl_data" }
%"struct.std::_Vector_base<std::shared_ptr<cvc5::internal::DTypeConstructor>, std::allocator<std::shared_ptr<cvc5::internal::DTypeConstructor>>>::_Vector_impl_data" = type { ptr, ptr, ptr }
%"class.cvc5::internal::TypeNode" = type { ptr }
%"class.cvc5::internal::NodeTemplate" = type { ptr }
%"class.std::map" = type { %"class.std::_Rb_tree" }
%"class.std::_Rb_tree" = type { %"struct.std::_Rb_tree<cvc5::internal::TypeNode, std::pair<const cvc5::internal::TypeNode, int>, std::_Select1st<std::pair<const cvc5::internal::TypeNode, int>>, std::less<cvc5::internal::TypeNode>>::_Rb_tree_impl" }
%"struct.std::_Rb_tree<cvc5::internal::TypeNode, std::pair<const cvc5::internal::TypeNode, int>, std::_Select1st<std::pair<const cvc5::internal::TypeNode, int>>, std::less<cvc5::internal::TypeNode>>::_Rb_tree_impl" = type { [8 x i8], %"struct.std::_Rb_tree_header" }
%"struct.std::_Rb_tree_header" = type { %"struct.std::_Rb_tree_node_base", i64 }
%"struct.std::_Rb_tree_node_base" = type { i32, ptr, ptr, ptr }
%"class.std::map.11" = type { %"class.std::_Rb_tree.12" }
%"class.std::_Rb_tree.12" = type { %"struct.std::_Rb_tree<cvc5::internal::TypeNode, std::pair<const cvc5::internal::TypeNode, std::vector<cvc5::internal::TypeNode>>, std::_Select1st<std::pair<const cvc5::internal::TypeNode, std::vector<cvc5::internal::TypeNode>>>, std::less<cvc5::internal::TypeNode>>::_Rb_tree_impl" }
%"struct.std::_Rb_tree<cvc5::internal::TypeNode, std::pair<const cvc5::internal::TypeNode, std::vector<cvc5::internal::TypeNode>>, std::_Select1st<std::pair<const cvc5::internal::TypeNode, std::vector<cvc5::internal::TypeNode>>>, std::less<cvc5::internal::TypeNode>>::_Rb_tree_impl" = type { [8 x i8], %"struct.std::_Rb_tree_header" }
%"class.std::map.16" = type { %"class.std::_Rb_tree.17" }
%"class.std::_Rb_tree.17" = type { %"struct.std::_Rb_tree<cvc5::internal::TypeNode, std::pair<const cvc5::internal::TypeNode, cvc5::internal::NodeTemplate<true>>, std::_Select1st<std::pair<const cvc5::internal::TypeNode, cvc5::internal::NodeTemplate<true>>>, std::less<cvc5::internal::TypeNode>>::_Rb_tree_impl" }
%"struct.std::_Rb_tree<cvc5::internal::TypeNode, std::pair<const cvc5::internal::TypeNode, cvc5::internal::NodeTemplate<true>>, std::_Select1st<std::pair<const cvc5::internal::TypeNode, cvc5::internal::NodeTemplate<true>>>, std::less<cvc5::internal::TypeNode>>::_Rb_tree_impl" = type { [8 x i8], %"struct.std::_Rb_tree_header" }
%"class.std::map.21" = type { %"class.std::_Rb_tree.22" }
%"class.std::_Rb_tree.22" = type { %"struct.std::_Rb_tree<cvc5::internal::TypeNode, std::pair<const cvc5::internal::TypeNode, std::map<cvc5::internal::TypeNode, std::map<unsigned int, cvc5::internal::NodeTemplate<true>>>>, std::_Select1st<std::pair<const cvc5::internal::TypeNode, std::map<cvc5::internal::TypeNode, std::map<unsigned int, cvc5::internal::NodeTemplate<true>>>>>, std::less<cvc5::internal::TypeNode>>::_Rb_tree_impl" }
%"struct.std::_Rb_tree<cvc5::internal::TypeNode, std::pair<const cvc5::internal::TypeNode, std::map<cvc5::internal::TypeNode, std::map<unsigned int, cvc5::internal::NodeTemplate<true>>>>, std::_Select1st<std::pair<const cvc5::internal::TypeNode, std::map<cvc5::internal::TypeNode, std::map<unsigned int, cvc5::internal::NodeTemplate<true>>>>>, std::less<cvc5::internal::TypeNode>>::_Rb_tree_impl" = type { [8 x i8], %"struct.std::_Rb_tree_header" }
%"class.std::map.26" = type { %"class.std::_Rb_tree.27" }
%"class.std::_Rb_tree.27" = type { %"struct.std::_Rb_tree<cvc5::internal::TypeNode, std::pair<const cvc5::internal::TypeNode, cvc5::internal::CardinalityClass>, std::_Select1st<std::pair<const cvc5::internal::TypeNode, cvc5::internal::CardinalityClass>>, std::less<cvc5::internal::TypeNode>>::_Rb_tree_impl" }
%"struct.std::_Rb_tree<cvc5::internal::TypeNode, std::pair<const cvc5::internal::TypeNode, cvc5::internal::CardinalityClass>, std::_Select1st<std::pair<const cvc5::internal::TypeNode, cvc5::internal::CardinalityClass>>, std::less<cvc5::internal::TypeNode>>::_Rb_tree_impl" = type { [8 x i8], %"struct.std::_Rb_tree_header" }

; Function Attrs: mustprogress uwtable
define linkonce_odr hidden void @_ZN4cvc58internal4expr9NodeValue3incEv(ptr noundef nonnull align 8 dereferenceable(24) %0) #4 comdat align 2 {
  %2 = alloca ptr, align 8
  store ptr %0, ptr %2, align 8, !tbaa !171
  %3 = load ptr, ptr %2, align 8
  %4 = load i64, ptr %3, align 8
  %5 = lshr i64 %4, 40
  %6 = and i64 %5, 1048575
  %7 = trunc i64 %6 to i32
  %8 = icmp ult i32 %7, 1048574
  %9 = zext i1 %8 to i64
  %10 = call i64 @llvm.expect.i64(i64 %9, i64 1)
  %11 = icmp ne i64 %10, 0
  br i1 %11, label %12, label %24

12:                                               ; preds = %1
  %13 = load i64, ptr %3, align 8
  %14 = lshr i64 %13, 40
  %15 = and i64 %14, 1048575
  %16 = trunc i64 %15 to i32
  %17 = add i32 %16, 1
  %18 = zext i32 %17 to i64
  %19 = load i64, ptr %3, align 8
  %20 = and i64 %18, 1048575
  %21 = shl i64 %20, 40
  %22 = and i64 %19, -1152920405095219201
  %23 = or i64 %22, %21
  store i64 %23, ptr %3, align 8
  br label %46

24:                                               ; preds = %1
  %25 = load i64, ptr %3, align 8
  %26 = lshr i64 %25, 40
  %27 = and i64 %26, 1048575
  %28 = trunc i64 %27 to i32
  %29 = icmp eq i32 %28, 1048574
  %30 = zext i1 %29 to i64
  %31 = call i64 @llvm.expect.i64(i64 %30, i64 0)
  %32 = icmp ne i64 %31, 0
  br i1 %32, label %33, label %45

33:                                               ; preds = %24
  %34 = load i64, ptr %3, align 8
  %35 = lshr i64 %34, 40
  %36 = and i64 %35, 1048575
  %37 = trunc i64 %36 to i32
  %38 = add i32 %37, 1
  %39 = zext i32 %38 to i64
  %40 = load i64, ptr %3, align 8
  %41 = and i64 %39, 1048575
  %42 = shl i64 %41, 40
  %43 = and i64 %40, -1152920405095219201
  %44 = or i64 %43, %42
  store i64 %44, ptr %3, align 8
  call void @_ZN4cvc58internal4expr9NodeValue20markRefCountMaxedOutEv(ptr noundef nonnull align 8 dereferenceable(24) %3)
  br label %45

45:                                               ; preds = %33, %24
  br label %46

46:                                               ; preds = %45, %12
  ret void
}

; Function Attrs: inlinehint mustprogress uwtable
define linkonce_odr hidden void @_ZN4cvc58internal8TypeNodeC2ERKS1_(ptr noundef nonnull align 8 dereferenceable(8) %0, ptr noundef nonnull align 8 dereferenceable(8) %1) unnamed_addr #8 comdat align 2 {
  %3 = alloca ptr, align 8
  %4 = alloca ptr, align 8
  store ptr %0, ptr %3, align 8, !tbaa !72
  store ptr %1, ptr %4, align 8, !tbaa !72
  %5 = load ptr, ptr %3, align 8
  %6 = load ptr, ptr %4, align 8, !tbaa !72
  %7 = getelementptr inbounds nuw %"class.cvc5::internal::TypeNode", ptr %6, i32 0, i32 0
  %8 = load ptr, ptr %7, align 8, !tbaa !73
  %9 = getelementptr inbounds nuw %"class.cvc5::internal::TypeNode", ptr %5, i32 0, i32 0
  store ptr %8, ptr %9, align 8, !tbaa !73
  %10 = getelementptr inbounds nuw %"class.cvc5::internal::TypeNode", ptr %5, i32 0, i32 0
  %11 = load ptr, ptr %10, align 8, !tbaa !73
  call void @_ZN4cvc58internal4expr9NodeValue3incEv(ptr noundef nonnull align 8 dereferenceable(24) %11)
  ret void
}

; Function Attrs: mustprogress uwtable
define hidden void @_ZNK4cvc58internal5DType11getTypeNodeEv(ptr dead_on_unwind noalias writable sret(%"class.cvc5::internal::TypeNode") align 8 %0, ptr noundef nonnull align 8 dereferenceable(448) %1) #4 align 2 {
  %3 = alloca ptr, align 8
  %4 = alloca ptr, align 8
  store ptr %0, ptr %3, align 8
  store ptr %1, ptr %4, align 8, !tbaa !3
  %5 = load ptr, ptr %4, align 8
  %6 = getelementptr inbounds nuw %"class.cvc5::internal::DType", ptr %5, i32 0, i32 8
  call void @_ZN4cvc58internal8TypeNodeC2ERKS1_(ptr noundef nonnull align 8 dereferenceable(8) %0, ptr noundef nonnull align 8 dereferenceable(8) %6)
  ret void
}